; Function Attrs: mustprogress nounwind uwtable
define dso_local void @_ZN4Luau22NormalizedFunctionType10resetToTopEv(ptr noundef nonnull align 8 captures(none) dereferenceable(80) initializes((0, 1)) %0) local_unnamed_addr #6 align 2 personality ptr @__gxx_personality_v0 {
  store i8 1, ptr %0, align 8, !tbaa !102
  %2 = getelementptr inbounds nuw i8, ptr %0, i64 8
  %3 = getelementptr inbounds nuw i8, ptr %0, i64 48
  %4 = load ptr, ptr %3, align 8, !tbaa !21
  %5 = getelementptr inbounds nuw i8, ptr %0, i64 56
  %6 = load ptr, ptr %5, align 8, !tbaa !36
  %.not.i.i.i = icmp eq ptr %6, %4
  br i1 %.not.i.i.i, label %_ZNSt6vectorIPKN4Luau4TypeESaIS3_EE5clearEv.exit.i, label %7

7:                                                ; preds = %1
  store ptr %4, ptr %5, align 8, !tbaa !36
  br label %_ZNSt6vectorIPKN4Luau4TypeESaIS3_EE5clearEv.exit.i

_ZNSt6vectorIPKN4Luau4TypeESaIS3_EE5clearEv.exit.i: ; preds = %7, %1
  %8 = getelementptr inbounds nuw i8, ptr %0, i64 24
  %9 = load i64, ptr %8, align 8, !tbaa !43
  %10 = icmp eq i64 %9, 0
  br i1 %10, label %_ZN4Luau7TypeIds5clearEv.exit, label %11

11:                                               ; preds = %_ZNSt6vectorIPKN4Luau4TypeESaIS3_EE5clearEv.exit.i
  %12 = getelementptr inbounds nuw i8, ptr %0, i64 16
  %13 = load i64, ptr %12, align 8, !tbaa !44
  %14 = icmp ugt i64 %13, 32
  %15 = load ptr, ptr %2, align 8, !tbaa !26
  br i1 %14, label %16, label %17

16:                                               ; preds = %11
  tail call void @_ZdlPv(ptr noundef %15) #32
  tail call void @llvm.memset.p0.i64(ptr noundef nonnull align 8 dereferenceable(72) %2, i8 0, i64 16, i1 false)
  br label %_ZN4Luau6detail16ItemInterfaceMapIPKNS_4TypeEbE4fillEPSt4pairIS4_bEmRKS4_.exit.i.i.i

17:                                               ; preds = %11
  %.not.i.i.i.i = icmp eq i64 %13, 0
  br i1 %.not.i.i.i.i, label %_ZN4Luau6detail16ItemInterfaceMapIPKNS_4TypeEbE4fillEPSt4pairIS4_bEmRKS4_.exit.i.i.i, label %.lr.ph.preheader.i.i.i.i

.lr.ph.preheader.i.i.i.i:                         ; preds = %17
  %18 = getelementptr inbounds nuw i8, ptr %0, i64 32
  %.pre.i.i.i.i = load ptr, ptr %18, align 8, !tbaa !19
  br label %.lr.ph.i.i.i.i

.lr.ph.i.i.i.i:                                   ; preds = %.lr.ph.i.i.i.i, %.lr.ph.preheader.i.i.i.i
  %.07.i.i.i.i = phi i64 [ %21, %.lr.ph.i.i.i.i ], [ 0, %.lr.ph.preheader.i.i.i.i ]
  %19 = getelementptr inbounds nuw %"struct.std::pair.344", ptr %15, i64 %.07.i.i.i.i
  store ptr %.pre.i.i.i.i, ptr %19, align 8, !tbaa !19
  %20 = getelementptr inbounds nuw i8, ptr %19, i64 8
  store i8 0, ptr %20, align 8, !tbaa !32
  %21 = add nuw nsw i64 %.07.i.i.i.i, 1
  %exitcond.not.i.i.i.i = icmp eq i64 %21, %13
  br i1 %exitcond.not.i.i.i.i, label %_ZN4Luau6detail16ItemInterfaceMapIPKNS_4TypeEbE4fillEPSt4pairIS4_bEmRKS4_.exit.i.i.i, label %.lr.ph.i.i.i.i, !llvm.loop !48

_ZN4Luau6detail16ItemInterfaceMapIPKNS_4TypeEbE4fillEPSt4pairIS4_bEmRKS4_.exit.i.i.i: ; preds = %.lr.ph.i.i.i.i, %17, %16
  store i64 0, ptr %8, align 8, !tbaa !43
  br label %_ZN4Luau7TypeIds5clearEv.exit

_ZN4Luau7TypeIds5clearEv.exit:                    ; preds = %_ZNSt6vectorIPKN4Luau4TypeESaIS3_EE5clearEv.exit.i, %_ZN4Luau6detail16ItemInterfaceMapIPKNS_4TypeEbE4fillEPSt4pairIS4_bEmRKS4_.exit.i.i.i
  %22 = getelementptr inbounds nuw i8, ptr %0, i64 72
  store i64 0, ptr %22, align 8, !tbaa !37
  ret void
}